; Function Attrs: nounwind uwtable
define internal range(i32 0, 2) i32 @aes_wrap_set_ctx_params(ptr noundef readonly captures(none) %0, ptr noundef %1) #0 {
  %3 = alloca i64, align 8
  call void @llvm.lifetime.start.p0(i64 8, ptr nonnull %3) #3
  store i64 0, ptr %3, align 8, !tbaa !13
  %4 = icmp eq ptr %1, null
  br i1 %4, label %ossl_param_is_empty.exit.thread, label %ossl_param_is_empty.exit

ossl_param_is_empty.exit:                         ; preds = %2
  %5 = load ptr, ptr %1, align 8, !tbaa !20
  %.not = icmp eq ptr %5, null
  br i1 %.not, label %ossl_param_is_empty.exit.thread, label %6

6:                                                ; preds = %ossl_param_is_empty.exit
  %7 = tail call ptr @OSSL_PARAM_locate_const(ptr noundef nonnull %1, ptr noundef nonnull @.str.1) #3
  %.not7 = icmp eq ptr %7, null
  br i1 %.not7, label %ossl_param_is_empty.exit.thread, label %8

8:                                                ; preds = %6
  %9 = call i32 @OSSL_PARAM_get_size_t(ptr noundef nonnull %7, ptr noundef nonnull %3) #3
  %.not8 = icmp eq i32 %9, 0
  br i1 %.not8, label %ossl_param_is_empty.exit.thread.sink.split, label %10

10:                                               ; preds = %8
  %11 = getelementptr inbounds nuw i8, ptr %0, i64 72
  %12 = load i64, ptr %11, align 8, !tbaa !22
  %13 = load i64, ptr %3, align 8, !tbaa !13
  %.not9 = icmp eq i64 %12, %13
  br i1 %.not9, label %ossl_param_is_empty.exit.thread, label %ossl_param_is_empty.exit.thread.sink.split

ossl_param_is_empty.exit.thread.sink.split:       ; preds = %10, %8
  %.sink11 = phi i32 [ 275, %8 ], [ 279, %10 ]
  %.sink = phi i32 [ 103, %8 ], [ 105, %10 ]
  call void @ERR_new() #3
  call void @ERR_set_debug(ptr noundef nonnull @.str, i32 noundef %.sink11, ptr noundef nonnull @__func__.aes_wrap_set_ctx_params) #3
  call void (i32, i32, ptr, ...) @ERR_set_error(i32 noundef 57, i32 noundef %.sink, ptr noundef null) #3
  br label %ossl_param_is_empty.exit.thread

ossl_param_is_empty.exit.thread:                  ; preds = %ossl_param_is_empty.exit.thread.sink.split, %2, %6, %10, %ossl_param_is_empty.exit
  %.0 = phi i32 [ 1, %ossl_param_is_empty.exit ], [ 1, %10 ], [ 1, %6 ], [ 1, %2 ], [ 0, %ossl_param_is_empty.exit.thread.sink.split ]
  call void @llvm.lifetime.end.p0(i64 8, ptr nonnull %3) #3
  ret i32 %.0
}